target datalayout = "e-m:e-p270:32:32-p271:32:32-p272:64:64-i64:64-i128:128-f80:128-n8:16:32:64-S128"
target triple = "x86_64-pc-linux-gnu"

%"class.WasmEdge::AST::Limit" = type { i8, i32, i32 }
%"class.WasmEdge::AST::MemoryType" = type { %"class.WasmEdge::AST::Limit" }
%"class.WasmEdge::Runtime::Instance::MemoryInstance" = type <{ %"class.WasmEdge::AST::MemoryType", [4 x i8], ptr, i32, [4 x i8] }>
%"struct.cxx20::span.616" = type { %"class.cxx20::detail::span_storage.617" }
%"class.cxx20::detail::span_storage.617" = type { ptr, i64 }

; Function Attrs: mustprogress nounwind uwtable
define linkonce_odr hidden void @_ZN5cxx206detail12span_storageIhLm18446744073709551615EEC2EPhm(ptr noundef nonnull align 8 dereferenceable(16) %0, ptr noundef %1, i64 noundef %2) unnamed_addr #0 comdat align 2 {
  %4 = alloca ptr, align 8
  %5 = alloca ptr, align 8
  %6 = alloca i64, align 8
  store ptr %0, ptr %4, align 8
  store ptr %1, ptr %5, align 8
  store i64 %2, ptr %6, align 8
  %7 = load ptr, ptr %4, align 8
  %8 = getelementptr inbounds %"class.cxx20::detail::span_storage.617", ptr %7, i32 0, i32 0
  %9 = load ptr, ptr %5, align 8
  store ptr %9, ptr %8, align 8
  %10 = getelementptr inbounds %"class.cxx20::detail::span_storage.617", ptr %7, i32 0, i32 1
  %11 = load i64, ptr %6, align 8
  store i64 %11, ptr %10, align 8
  ret void
}

; Function Attrs: mustprogress nounwind uwtable
define linkonce_odr hidden noundef ptr @_ZN5cxx2010to_addressIhEEPT_S2_(ptr noundef %0) #0 comdat {
  %2 = alloca ptr, align 8
  store ptr %0, ptr %2, align 8
  %3 = load ptr, ptr %2, align 8
  ret ptr %3
}

; Function Attrs: mustprogress nounwind uwtable
define linkonce_odr hidden void @_ZN5cxx206detail12span_storageIhLm18446744073709551615EEC2Ev(ptr noundef nonnull align 8 dereferenceable(16) %0) unnamed_addr #0 comdat align 2 {
  %2 = alloca ptr, align 8
  store ptr %0, ptr %2, align 8
  %3 = load ptr, ptr %2, align 8
  %4 = getelementptr inbounds %"class.cxx20::detail::span_storage.617", ptr %3, i32 0, i32 0
  store ptr null, ptr %4, align 8
  %5 = getelementptr inbounds %"class.cxx20::detail::span_storage.617", ptr %3, i32 0, i32 1
  store i64 0, ptr %5, align 8
  ret void
}

; Function Attrs: mustprogress nounwind uwtable
define linkonce_odr hidden noundef i32 @_ZNK8WasmEdge3AST5Limit6getMinEv(ptr noundef nonnull align 4 dereferenceable(12) %0) #0 comdat align 2 {
  %2 = alloca ptr, align 8
  store ptr %0, ptr %2, align 8
  %3 = load ptr, ptr %2, align 8
  %4 = getelementptr inbounds %"class.WasmEdge::AST::Limit", ptr %3, i32 0, i32 1
  %5 = load i32, ptr %4, align 4
  ret i32 %5
}

; Function Attrs: mustprogress nounwind uwtable
define linkonce_odr hidden noundef nonnull align 4 dereferenceable(12) ptr @_ZNK8WasmEdge3AST10MemoryType8getLimitEv(ptr noundef nonnull align 4 dereferenceable(12) %0) #0 comdat align 2 {
  %2 = alloca ptr, align 8
  store ptr %0, ptr %2, align 8
  %3 = load ptr, ptr %2, align 8
  %4 = getelementptr inbounds %"class.WasmEdge::AST::MemoryType", ptr %3, i32 0, i32 0
  ret ptr %4
}

; Function Attrs: mustprogress nounwind uwtable
define linkonce_odr hidden void @_ZN5cxx204spanIhLm18446744073709551615EEC2IPhTnPNSt9enable_ifIXsr6detailE24is_compatible_iterator_vIhT_EEvE4typeELPv0EEES5_m(ptr noundef nonnull align 8 dereferenceable(16) %0, ptr noundef %1, i64 noundef %2) unnamed_addr #0 comdat align 2 {
  %4 = alloca ptr, align 8
  %5 = alloca ptr, align 8
  %6 = alloca i64, align 8
  store ptr %0, ptr %4, align 8
  store ptr %1, ptr %5, align 8
  store i64 %2, ptr %6, align 8
  %7 = load ptr, ptr %4, align 8
  %8 = load ptr, ptr %5, align 8
  %9 = call noundef ptr @_ZN5cxx2010to_addressIhEEPT_S2_(ptr noundef %8) #18
  %10 = load i64, ptr %6, align 8
  call void @_ZN5cxx206detail12span_storageIhLm18446744073709551615EEC2EPhm(ptr noundef nonnull align 8 dereferenceable(16) %7, ptr noundef %9, i64 noundef %10) #18
  ret void
}

; Function Attrs: mustprogress nounwind uwtable
define linkonce_odr hidden void @_ZN5cxx204spanIhLm18446744073709551615EEC2Ev(ptr noundef nonnull align 8 dereferenceable(16) %0) unnamed_addr #0 comdat align 2 {
  %2 = alloca ptr, align 8
  store ptr %0, ptr %2, align 8
  %3 = load ptr, ptr %2, align 8
  call void @_ZN5cxx206detail12span_storageIhLm18446744073709551615EEC2Ev(ptr noundef nonnull align 8 dereferenceable(16) %3) #18
  ret void
}

; Function Attrs: mustprogress nounwind uwtable
define internal noundef zeroext i1 @_ZN8WasmEdgeL8unlikelyEb(i1 noundef zeroext %0) #0 {
  %2 = alloca i8, align 1
  %3 = zext i1 %0 to i8
  store i8 %3, ptr %2, align 1
  %4 = load i8, ptr %2, align 1
  %5 = trunc i8 %4 to i1
  ret i1 %5
}

; Function Attrs: mustprogress nounwind uwtable
define linkonce_odr hidden noundef zeroext i1 @_ZNK8WasmEdge7Runtime8Instance14MemoryInstance16checkAccessBoundEjj(ptr noundef nonnull align 8 dereferenceable(28) %0, i32 noundef %1, i32 noundef %2) #0 comdat align 2 {
  %4 = alloca ptr, align 8
  %5 = alloca i32, align 4
  %6 = alloca i32, align 4
  %7 = alloca i64, align 8
  store ptr %0, ptr %4, align 8
  store i32 %1, ptr %5, align 4
  store i32 %2, ptr %6, align 4
  %8 = load ptr, ptr %4, align 8
  %9 = load i32, ptr %5, align 4
  %10 = zext i32 %9 to i64
  %11 = load i32, ptr %6, align 4
  %12 = zext i32 %11 to i64
  %13 = add i64 %10, %12
  store i64 %13, ptr %7, align 8
  %14 = load i64, ptr %7, align 8
  %15 = getelementptr inbounds %"class.WasmEdge::Runtime::Instance::MemoryInstance", ptr %8, i32 0, i32 0
  %16 = call noundef nonnull align 4 dereferenceable(12) ptr @_ZNK8WasmEdge3AST10MemoryType8getLimitEv(ptr noundef nonnull align 4 dereferenceable(12) %15) #18
  %17 = call noundef i32 @_ZNK8WasmEdge3AST5Limit6getMinEv(ptr noundef nonnull align 4 dereferenceable(12) %16) #18
  %18 = zext i32 %17 to i64
  %19 = mul i64 %18, 65536
  %20 = icmp ule i64 %14, %19
  ret i1 %20
}

; Function Attrs: mustprogress nounwind uwtable
define linkonce_odr hidden noundef ptr @_ZNK5cxx206detail12span_storageIhLm18446744073709551615EE4dataEv(ptr noundef nonnull align 8 dereferenceable(16) %0) #0 comdat align 2 {
  %2 = alloca ptr, align 8
  store ptr %0, ptr %2, align 8
  %3 = load ptr, ptr %2, align 8
  %4 = getelementptr inbounds %"class.cxx20::detail::span_storage.617", ptr %3, i32 0, i32 0
  %5 = load ptr, ptr %4, align 8
  ret ptr %5
}

; Function Attrs: mustprogress nounwind uwtable
define linkonce_odr hidden noundef i64 @_ZNK5cxx206detail12span_storageIhLm18446744073709551615EE4sizeEv(ptr noundef nonnull align 8 dereferenceable(16) %0) #0 comdat align 2 {
  %2 = alloca ptr, align 8
  store ptr %0, ptr %2, align 8
  %3 = load ptr, ptr %2, align 8
  %4 = getelementptr inbounds %"class.cxx20::detail::span_storage.617", ptr %3, i32 0, i32 1
  %5 = load i64, ptr %4, align 8
  ret i64 %5
}

; Function Attrs: mustprogress nounwind uwtable
define linkonce_odr hidden { ptr, i64 } @_ZNK8WasmEdge7Runtime8Instance14MemoryInstance7getSpanIhEEN5cxx204spanIT_Lm18446744073709551615EEEjj(ptr noundef nonnull align 8 dereferenceable(28) %0, i32 noundef %1, i32 noundef %2) #0 comdat align 2 {
  %4 = alloca %"struct.cxx20::span.616", align 8
  %5 = alloca ptr, align 8
  %6 = alloca i32, align 4
  %7 = alloca i32, align 4
  %8 = alloca i32, align 4
  store ptr %0, ptr %5, align 8
  store i32 %1, ptr %6, align 4
  store i32 %2, ptr %7, align 4
  %9 = load ptr, ptr %5, align 8
  %10 = load i32, ptr %7, align 4
  %11 = zext i32 %10 to i64
  %12 = mul i64 1, %11
  %13 = trunc i64 %12 to i32
  store i32 %13, ptr %8, align 4
  %14 = load i32, ptr %6, align 4
  %15 = load i32, ptr %8, align 4
  %16 = call noundef zeroext i1 @_ZNK8WasmEdge7Runtime8Instance14MemoryInstance16checkAccessBoundEjj(ptr noundef nonnull align 8 dereferenceable(28) %9, i32 noundef %14, i32 noundef %15) #18
  %17 = xor i1 %16, true
  %18 = call noundef zeroext i1 @_ZN8WasmEdgeL8unlikelyEb(i1 noundef zeroext %17) #18
  br i1 %18, label %19, label %20

19:                                               ; preds = %3
  call void @llvm.memset.p0.i64(ptr align 8 %4, i8 0, i64 16, i1 false)
  call void @_ZN5cxx204spanIhLm18446744073709551615EEC2Ev(ptr noundef nonnull align 8 dereferenceable(16) %4) #18
  br label %28

20:                                               ; preds = %3
  %21 = getelementptr inbounds %"class.WasmEdge::Runtime::Instance::MemoryInstance", ptr %9, i32 0, i32 2
  %22 = load ptr, ptr %21, align 8
  %23 = load i32, ptr %6, align 4
  %24 = zext i32 %23 to i64
  %25 = getelementptr inbounds i8, ptr %22, i64 %24
  %26 = load i32, ptr %7, align 4
  %27 = zext i32 %26 to i64
  call void @_ZN5cxx204spanIhLm18446744073709551615EEC2IPhTnPNSt9enable_ifIXsr6detailE24is_compatible_iterator_vIhT_EEvE4typeELPv0EEES5_m(ptr noundef nonnull align 8 dereferenceable(16) %4, ptr noundef %25, i64 noundef %27) #18
  br label %28

28:                                               ; preds = %20, %19
  %29 = getelementptr inbounds %"struct.cxx20::span.616", ptr %4, i32 0, i32 0
  %30 = load { ptr, i64 }, ptr %29, align 8
  ret { ptr, i64 } %30
}

; Function Attrs: mustprogress nounwind uwtable
define internal noundef ptr @_ZN12_GLOBAL__N_110fromMemCxtEP30WasmEdge_MemoryInstanceContext(ptr noundef %0) #0 {
  %2 = alloca ptr, align 8
  store ptr %0, ptr %2, align 8
  %3 = load ptr, ptr %2, align 8
  ret ptr %3
}

; Function Attrs: mustprogress nounwind uwtable
define ptr @WasmEdge_MemoryInstanceGetPointer(ptr noundef %0, i32 noundef %1, i32 noundef %2) #0 {
  %4 = alloca ptr, align 8
  %5 = alloca ptr, align 8
  %6 = alloca i32, align 4
  %7 = alloca i32, align 4
  %8 = alloca %"struct.cxx20::span.616", align 8
  store ptr %0, ptr %5, align 8
  store i32 %1, ptr %6, align 4
  store i32 %2, ptr %7, align 4
  %9 = load ptr, ptr %5, align 8
  %10 = icmp ne ptr %9, null
  br i1 %10, label %11, label %29

11:                                               ; preds = %3
  %12 = load ptr, ptr %5, align 8
  %13 = call noundef ptr @_ZN12_GLOBAL__N_110fromMemCxtEP30WasmEdge_MemoryInstanceContext(ptr noundef %12) #18
  %14 = load i32, ptr %6, align 4
  %15 = load i32, ptr %7, align 4
  %16 = call { ptr, i64 } @_ZNK8WasmEdge7Runtime8Instance14MemoryInstance7getSpanIhEEN5cxx204spanIT_Lm18446744073709551615EEEjj(ptr noundef nonnull align 8 dereferenceable(28) %13, i32 noundef %14, i32 noundef %15) #18
  %17 = getelementptr inbounds %"struct.cxx20::span.616", ptr %8, i32 0, i32 0
  %18 = getelementptr inbounds { ptr, i64 }, ptr %17, i32 0, i32 0
  %19 = extractvalue { ptr, i64 } %16, 0
  store ptr %19, ptr %18, align 8
  %20 = getelementptr inbounds { ptr, i64 }, ptr %17, i32 0, i32 1
  %21 = extractvalue { ptr, i64 } %16, 1
  store i64 %21, ptr %20, align 8
  %22 = call noundef i64 @_ZNK5cxx206detail12span_storageIhLm18446744073709551615EE4sizeEv(ptr noundef nonnull align 8 dereferenceable(16) %8) #18
  %23 = load i32, ptr %7, align 4
  %24 = zext i32 %23 to i64
  %25 = icmp eq i64 %22, %24
  br i1 %25, label %26, label %28

26:                                               ; preds = %11
  %27 = call noundef ptr @_ZNK5cxx206detail12span_storageIhLm18446744073709551615EE4dataEv(ptr noundef nonnull align 8 dereferenceable(16) %8) #18
  store ptr %27, ptr %4, align 8
  br label %30

28:                                               ; preds = %11
  br label %29

29:                                               ; preds = %28, %3
  store ptr null, ptr %4, align 8
  br label %30

30:                                               ; preds = %29, %26
  %31 = load ptr, ptr %4, align 8
  ret ptr %31
}