; Function Attrs: mustprogress nofree norecurse nosync nounwind willreturn memory(argmem: read) uwtable
define ptr @WasmEdge_MemoryInstanceGetPointer(ptr noundef readonly %0, i32 noundef %1, i32 noundef %2) local_unnamed_addr #4 {
  %.not = icmp eq ptr %0, null
  br i1 %.not, label %15, label %4

4:                                                ; preds = %3
  %5 = zext i32 %1 to i64
  %6 = zext i32 %2 to i64
  %7 = add nuw nsw i64 %6, %5
  %8 = getelementptr inbounds i8, ptr %0, i64 4
  %9 = load i32, ptr %8, align 4
  %10 = zext i32 %9 to i64
  %11 = shl nuw nsw i64 %10, 16
  %.not.i.not = icmp ugt i64 %7, %11
  %12 = getelementptr inbounds i8, ptr %0, i64 16
  %13 = load ptr, ptr %12, align 8
  %14 = getelementptr inbounds i8, ptr %13, i64 %5
  %spec.select = select i1 %.not.i.not, ptr null, ptr %14
  br label %15

15:                                               ; preds = %4, %3
  %.0 = phi ptr [ null, %3 ], [ %spec.select, %4 ]
  ret ptr %.0
}